target datalayout = "e-m:e-p270:32:32-p271:32:32-p272:64:64-i64:64-i128:128-f80:128-n8:16:32:64-S128"
target triple = "x86_64-pc-linux-gnu"

; Function Attrs: mustprogress uwtable
define dso_local noundef i32 @_ZN4Type19get_bitfield_lengthEi(i32 noundef %0) #5 align 2 {
  %2 = alloca i32, align 4
  %3 = alloca i32, align 4
  %4 = alloca i32, align 4
  store i32 %0, ptr %2, align 4
  %5 = call noundef i32 @_ZN9CGOptions8int_sizeEv()
  %6 = mul nsw i32 %5, 8
  store i32 %6, ptr %3, align 4
  store i32 0, ptr %4, align 4
  %7 = load i32, ptr %2, align 4
  switch i32 %7, label %12 [
    i32 0, label %8
    i32 1, label %9
  ]

8:                                                ; preds = %1
  store i32 0, ptr %4, align 4
  br label %13

9:                                                ; preds = %1
  %10 = load i32, ptr %3, align 4
  %11 = call noundef i32 @_Z13pure_rnd_uptojPK6FilterPKNSt7__cxx1112basic_stringIcSt11char_traitsIcESaIcEEE(i32 noundef %10, ptr noundef null, ptr noundef null)
  store i32 %11, ptr %4, align 4
  br label %13

12:                                               ; preds = %1
  br label %13

13:                                               ; preds = %12, %9, %8
  %14 = load i32, ptr %4, align 4
  ret i32 %14
}