; Function Attrs: mustprogress uwtable
define dso_local noundef i32 @_ZN4Type19get_bitfield_lengthEi(i32 noundef %0) local_unnamed_addr #4 align 2 {
  %2 = tail call noundef i32 @_ZN9CGOptions8int_sizeEv()
  %cond = icmp eq i32 %0, 1
  br i1 %cond, label %3, label %6

3:                                                ; preds = %1
  %4 = shl nsw i32 %2, 3
  %5 = tail call noundef i32 @_Z13pure_rnd_uptojPK6FilterPKNSt7__cxx1112basic_stringIcSt11char_traitsIcESaIcEEE(i32 noundef %4, ptr noundef null, ptr noundef null)
  br label %6

6:                                                ; preds = %1, %3
  %.0 = phi i32 [ %5, %3 ], [ 0, %1 ]
  ret i32 %.0
}